target datalayout = "e-m:e-p270:32:32-p271:32:32-p272:64:64-i64:64-i128:128-f80:128-n8:16:32:64-S128"
target triple = "x86_64-pc-linux-gnu"

%struct.GetByteContext = type { ptr, ptr, ptr }
%struct.AVProbeData = type { ptr, ptr, i32, ptr }
%struct.AVRational = type { i32, i32 }
%struct.AVFormatContext = type { ptr, ptr, ptr, ptr, ptr, i32, i32, ptr, i32, ptr, i32, ptr, ptr, i64, i64, i64, i32, i32, i32, i64, i64, ptr, i32, i32, ptr, i32, i32, i32, i32, ptr, i64, i32, i32, %struct.AVIOInterruptCB, i32, i32, i32, i32, i64, i32, i32, i32, i32, i32, i32, i32, i32, i32, i32, i32, i32, i64, i32, i32, i32, i32, i32, ptr, ptr, ptr, ptr, i32, ptr, ptr, ptr, ptr, i32, ptr, ptr, i64, ptr, ptr, ptr, i64 }
%struct.AVIOInterruptCB = type { ptr, ptr }
%struct.AVStream = type { ptr, i32, i32, ptr, ptr, %struct.AVRational, i64, i64, i64, i32, i32, %struct.AVRational, ptr, %struct.AVRational, %struct.AVPacket, i32, %struct.AVRational, i32 }
%struct.AVPacket = type { ptr, i64, i64, ptr, i32, i32, i32, ptr, i32, i64, i64, ptr, ptr, %struct.AVRational }
%struct.AVCodecParameters = type { i32, i32, i32, ptr, i32, ptr, i32, i32, i64, i32, i32, i32, i32, i32, i32, %struct.AVRational, %struct.AVRational, i32, i32, i32, i32, i32, i32, i32, %struct.AVChannelLayout, i32, i32, i32, i32, i32, i32 }
%struct.AVChannelLayout = type { i32, i32, %union.anon, ptr }
%union.anon = type { i64 }
%struct.FFStream = type { %struct.AVStream, ptr, i32, ptr, i32, ptr, i32, %struct.anon, i32, i32, %struct.FFFrac, ptr, ptr, i32, i32, i64, i64, i32, i32, i32, i64, i64, i64, i32, i64, i64, i64, i32, i32, [17 x i64], [17 x i8], [17 x i64], i64, i8, i8, %struct.AVRational, %struct.AVProbeData, ptr, i64, i32, i32, i32, ptr, i32, i32, i64, i64, ptr, %struct.AVRational }
%struct.anon = type { ptr, i32 }
%struct.FFFrac = type { i64, i64, i64 }

@.str.2 = private unnamed_addr constant [30 x i8] c"Assertion %s failed at %s:%d\0A\00", align 1
@.str.3 = private unnamed_addr constant [14 x i8] c"buf_size >= 0\00", align 1
@.str.4 = private unnamed_addr constant [26 x i8] c"./libavcodec/bytestream.h\00", align 1

; Function Attrs: alwaysinline nounwind willreturn memory(none) uwtable
define internal i32 @av_bswap32(i32 noundef %0) #5 {
  %2 = alloca i32, align 4
  store i32 %0, ptr %2, align 4, !tbaa !14
  %3 = load i32, ptr %2, align 4, !tbaa !14
  %4 = shl i32 %3, 8
  %5 = and i32 %4, 65280
  %6 = load i32, ptr %2, align 4, !tbaa !14
  %7 = lshr i32 %6, 8
  %8 = and i32 %7, 255
  %9 = or i32 %5, %8
  %10 = shl i32 %9, 16
  %11 = load i32, ptr %2, align 4, !tbaa !14
  %12 = lshr i32 %11, 16
  %13 = shl i32 %12, 8
  %14 = and i32 %13, 65280
  %15 = load i32, ptr %2, align 4, !tbaa !14
  %16 = lshr i32 %15, 16
  %17 = lshr i32 %16, 8
  %18 = and i32 %17, 255
  %19 = or i32 %14, %18
  %20 = or i32 %10, %19
  ret i32 %20
}

; Function Attrs: alwaysinline nounwind uwtable
define internal i32 @bytestream_get_be32(ptr noundef %0) #2 {
  %2 = alloca ptr, align 8
  store ptr %0, ptr %2, align 8, !tbaa !84
  %3 = load ptr, ptr %2, align 8, !tbaa !84
  %4 = load ptr, ptr %3, align 8, !tbaa !67
  %5 = getelementptr inbounds i8, ptr %4, i64 4
  store ptr %5, ptr %3, align 8, !tbaa !67
  %6 = load ptr, ptr %2, align 8, !tbaa !84
  %7 = load ptr, ptr %6, align 8, !tbaa !67
  %8 = getelementptr inbounds i8, ptr %7, i64 -4
  %9 = load i32, ptr %8, align 1, !tbaa !64
  %10 = call i32 @av_bswap32(i32 noundef %9) #8
  ret i32 %10
}

; Function Attrs: alwaysinline nounwind uwtable
define internal i32 @bytestream2_get_be32u(ptr noundef %0) #2 {
  %2 = alloca ptr, align 8
  store ptr %0, ptr %2, align 8, !tbaa !65
  %3 = load ptr, ptr %2, align 8, !tbaa !65
  %4 = getelementptr inbounds nuw %struct.GetByteContext, ptr %3, i32 0, i32 0
  %5 = call i32 @bytestream_get_be32(ptr noundef %4)
  ret i32 %5
}

; Function Attrs: alwaysinline nounwind uwtable
define internal ptr @ffstream(ptr noundef %0) #2 {
  %2 = alloca ptr, align 8
  store ptr %0, ptr %2, align 8, !tbaa !32
  %3 = load ptr, ptr %2, align 8, !tbaa !32
  ret ptr %3
}

; Function Attrs: alwaysinline nounwind uwtable
define internal i32 @bytestream2_get_be32(ptr noundef %0) #2 {
  %2 = alloca i32, align 4
  %3 = alloca ptr, align 8
  store ptr %0, ptr %3, align 8, !tbaa !65
  %4 = load ptr, ptr %3, align 8, !tbaa !65
  %5 = getelementptr inbounds nuw %struct.GetByteContext, ptr %4, i32 0, i32 1
  %6 = load ptr, ptr %5, align 8, !tbaa !71
  %7 = load ptr, ptr %3, align 8, !tbaa !65
  %8 = getelementptr inbounds nuw %struct.GetByteContext, ptr %7, i32 0, i32 0
  %9 = load ptr, ptr %8, align 8, !tbaa !68
  %10 = ptrtoint ptr %6 to i64
  %11 = ptrtoint ptr %9 to i64
  %12 = sub i64 %10, %11
  %13 = icmp slt i64 %12, 4
  br i1 %13, label %14, label %20

14:                                               ; preds = %1
  %15 = load ptr, ptr %3, align 8, !tbaa !65
  %16 = getelementptr inbounds nuw %struct.GetByteContext, ptr %15, i32 0, i32 1
  %17 = load ptr, ptr %16, align 8, !tbaa !71
  %18 = load ptr, ptr %3, align 8, !tbaa !65
  %19 = getelementptr inbounds nuw %struct.GetByteContext, ptr %18, i32 0, i32 0
  store ptr %17, ptr %19, align 8, !tbaa !68
  store i32 0, ptr %2, align 4
  br label %23

20:                                               ; preds = %1
  %21 = load ptr, ptr %3, align 8, !tbaa !65
  %22 = call i32 @bytestream2_get_be32u(ptr noundef %21)
  store i32 %22, ptr %2, align 4
  br label %23

23:                                               ; preds = %20, %14
  %24 = load i32, ptr %2, align 4
  ret i32 %24
}

; Function Attrs: alwaysinline nounwind uwtable
define internal void @bytestream2_init(ptr noundef %0, ptr noundef %1, i32 noundef %2) #2 {
  %4 = alloca ptr, align 8
  %5 = alloca ptr, align 8
  %6 = alloca i32, align 4
  store ptr %0, ptr %4, align 8, !tbaa !65
  store ptr %1, ptr %5, align 8, !tbaa !67
  store i32 %2, ptr %6, align 4, !tbaa !14
  br label %7

7:                                                ; preds = %3
  %8 = load i32, ptr %6, align 4, !tbaa !14
  %9 = icmp sge i32 %8, 0
  br i1 %9, label %11, label %10

10:                                               ; preds = %7
  call void (ptr, i32, ptr, ...) @av_log(ptr noundef null, i32 noundef 0, ptr noundef @.str.2, ptr noundef @.str.3, ptr noundef @.str.4, i32 noundef 141)
  call void @abort() #9
  unreachable

11:                                               ; preds = %7
  br label %12

12:                                               ; preds = %11
  %13 = load ptr, ptr %5, align 8, !tbaa !67
  %14 = load ptr, ptr %4, align 8, !tbaa !65
  %15 = getelementptr inbounds nuw %struct.GetByteContext, ptr %14, i32 0, i32 0
  store ptr %13, ptr %15, align 8, !tbaa !68
  %16 = load ptr, ptr %5, align 8, !tbaa !67
  %17 = load ptr, ptr %4, align 8, !tbaa !65
  %18 = getelementptr inbounds nuw %struct.GetByteContext, ptr %17, i32 0, i32 2
  store ptr %16, ptr %18, align 8, !tbaa !70
  %19 = load ptr, ptr %5, align 8, !tbaa !67
  %20 = load i32, ptr %6, align 4, !tbaa !14
  %21 = sext i32 %20 to i64
  %22 = getelementptr inbounds i8, ptr %19, i64 %21
  %23 = load ptr, ptr %4, align 8, !tbaa !65
  %24 = getelementptr inbounds nuw %struct.GetByteContext, ptr %23, i32 0, i32 1
  store ptr %22, ptr %24, align 8, !tbaa !71
  ret void
}

; Function Attrs: nounwind uwtable
define internal i32 @apv_read_header(ptr noundef %0) #0 {
  %2 = alloca i32, align 4
  %3 = alloca ptr, align 8
  %4 = alloca ptr, align 8
  %5 = alloca %struct.GetByteContext, align 8
  %6 = alloca [12 x i8], align 1
  %7 = alloca i32, align 4
  %8 = alloca i32, align 4
  %9 = alloca i32, align 4
  %10 = alloca i32, align 4
  %11 = alloca i32, align 4
  %12 = alloca i32, align 4
  %13 = alloca %struct.AVRational, align 4
  store ptr %0, ptr %3, align 8, !tbaa !15
  call void @llvm.lifetime.start.p0(i64 8, ptr %4) #7
  call void @llvm.lifetime.start.p0(i64 24, ptr %5) #7
  call void @llvm.lifetime.start.p0(i64 12, ptr %6) #7
  call void @llvm.lifetime.start.p0(i64 4, ptr %7) #7
  call void @llvm.lifetime.start.p0(i64 4, ptr %8) #7
  call void @llvm.lifetime.start.p0(i64 4, ptr %9) #7
  call void @llvm.lifetime.start.p0(i64 4, ptr %10) #7
  call void @llvm.lifetime.start.p0(i64 4, ptr %11) #7
  %14 = load ptr, ptr %3, align 8, !tbaa !15
  %15 = getelementptr inbounds nuw %struct.AVFormatContext, ptr %14, i32 0, i32 4
  %16 = load ptr, ptr %15, align 8, !tbaa !17
  %17 = call i32 @ffio_ensure_seekback(ptr noundef %16, i64 noundef 12)
  store i32 %17, ptr %10, align 4, !tbaa !14
  %18 = load i32, ptr %10, align 4, !tbaa !14
  %19 = icmp slt i32 %18, 0
  br i1 %19, label %20, label %22

20:                                               ; preds = %1
  %21 = load i32, ptr %10, align 4, !tbaa !14
  store i32 %21, ptr %2, align 4
  store i32 1, ptr %12, align 4
  br label %78

22:                                               ; preds = %1
  %23 = load ptr, ptr %3, align 8, !tbaa !15
  %24 = getelementptr inbounds nuw %struct.AVFormatContext, ptr %23, i32 0, i32 4
  %25 = load ptr, ptr %24, align 8, !tbaa !17
  %26 = getelementptr inbounds [12 x i8], ptr %6, i64 0, i64 0
  %27 = call i32 @ffio_read_size(ptr noundef %25, ptr noundef %26, i32 noundef 12)
  store i32 %27, ptr %11, align 4, !tbaa !14
  %28 = load i32, ptr %11, align 4, !tbaa !14
  %29 = icmp slt i32 %28, 0
  br i1 %29, label %30, label %32

30:                                               ; preds = %22
  %31 = load i32, ptr %11, align 4, !tbaa !14
  store i32 %31, ptr %2, align 4
  store i32 1, ptr %12, align 4
  br label %78

32:                                               ; preds = %22
  %33 = getelementptr inbounds [12 x i8], ptr %6, i64 0, i64 0
  call void @bytestream2_init(ptr noundef %5, ptr noundef %33, i32 noundef 12)
  %34 = call i32 @bytestream2_get_be32(ptr noundef %5)
  store i32 %34, ptr %7, align 4, !tbaa !14
  %35 = load i32, ptr %7, align 4, !tbaa !14
  %36 = icmp ult i32 %35, 24
  br i1 %36, label %37, label %38

37:                                               ; preds = %32
  store i32 -1094995529, ptr %2, align 4
  store i32 1, ptr %12, align 4
  br label %78

38:                                               ; preds = %32
  %39 = call i32 @bytestream2_get_be32(ptr noundef %5)
  store i32 %39, ptr %8, align 4, !tbaa !14
  %40 = load i32, ptr %8, align 4, !tbaa !14
  %41 = icmp ne i32 %40, 1632663089
  br i1 %41, label %42, label %43

42:                                               ; preds = %38
  store i32 -1094995529, ptr %2, align 4
  store i32 1, ptr %12, align 4
  br label %78

43:                                               ; preds = %38
  %44 = call i32 @bytestream2_get_be32(ptr noundef %5)
  store i32 %44, ptr %9, align 4, !tbaa !14
  %45 = load i32, ptr %9, align 4, !tbaa !14
  %46 = icmp ult i32 %45, 16
  br i1 %46, label %47, label %48

47:                                               ; preds = %43
  store i32 -1094995529, ptr %2, align 4
  store i32 1, ptr %12, align 4
  br label %78

48:                                               ; preds = %43
  %49 = load ptr, ptr %3, align 8, !tbaa !15
  %50 = call ptr @avformat_new_stream(ptr noundef %49, ptr noundef null)
  store ptr %50, ptr %4, align 8, !tbaa !32
  %51 = load ptr, ptr %4, align 8, !tbaa !32
  %52 = icmp ne ptr %51, null
  br i1 %52, label %54, label %53

53:                                               ; preds = %48
  store i32 -12, ptr %2, align 4
  store i32 1, ptr %12, align 4
  br label %78

54:                                               ; preds = %48
  %55 = load ptr, ptr %4, align 8, !tbaa !32
  %56 = getelementptr inbounds nuw %struct.AVStream, ptr %55, i32 0, i32 3
  %57 = load ptr, ptr %56, align 8, !tbaa !34
  %58 = getelementptr inbounds nuw %struct.AVCodecParameters, ptr %57, i32 0, i32 0
  store i32 0, ptr %58, align 8, !tbaa !41
  %59 = load ptr, ptr %4, align 8, !tbaa !32
  %60 = getelementptr inbounds nuw %struct.AVStream, ptr %59, i32 0, i32 3
  %61 = load ptr, ptr %60, align 8, !tbaa !34
  %62 = getelementptr inbounds nuw %struct.AVCodecParameters, ptr %61, i32 0, i32 1
  store i32 273, ptr %62, align 4, !tbaa !44
  %63 = load ptr, ptr %4, align 8, !tbaa !32
  %64 = call ptr @ffstream(ptr noundef %63)
  %65 = getelementptr inbounds nuw %struct.FFStream, ptr %64, i32 0, i32 41
  store i32 2, ptr %65, align 8, !tbaa !45
  %66 = load ptr, ptr %4, align 8, !tbaa !32
  %67 = getelementptr inbounds nuw %struct.AVStream, ptr %66, i32 0, i32 13
  %68 = getelementptr inbounds nuw %struct.AVRational, ptr %13, i32 0, i32 0
  store i32 30, ptr %68, align 4, !tbaa !56
  %69 = getelementptr inbounds nuw %struct.AVRational, ptr %13, i32 0, i32 1
  store i32 1, ptr %69, align 4, !tbaa !57
  call void @llvm.memcpy.p0.p0.i64(ptr align 8 %67, ptr align 4 %13, i64 8, i1 false), !tbaa.struct !58
  %70 = load ptr, ptr %4, align 8, !tbaa !32
  call void @avpriv_set_pts_info(ptr noundef %70, i32 noundef 64, i32 noundef 1, i32 noundef 30)
  %71 = load ptr, ptr %3, align 8, !tbaa !15
  %72 = getelementptr inbounds nuw %struct.AVFormatContext, ptr %71, i32 0, i32 4
  %73 = load ptr, ptr %72, align 8, !tbaa !17
  %74 = load i32, ptr %11, align 4, !tbaa !14
  %75 = sub nsw i32 0, %74
  %76 = sext i32 %75 to i64
  %77 = call i64 @avio_seek(ptr noundef %73, i64 noundef %76, i32 noundef 1)
  store i32 0, ptr %2, align 4
  store i32 1, ptr %12, align 4
  br label %78

78:                                               ; preds = %54, %53, %47, %42, %37, %30, %20
  call void @llvm.lifetime.end.p0(i64 4, ptr %11) #7
  call void @llvm.lifetime.end.p0(i64 4, ptr %10) #7
  call void @llvm.lifetime.end.p0(i64 4, ptr %9) #7
  call void @llvm.lifetime.end.p0(i64 4, ptr %8) #7
  call void @llvm.lifetime.end.p0(i64 4, ptr %7) #7
  call void @llvm.lifetime.end.p0(i64 12, ptr %6) #7
  call void @llvm.lifetime.end.p0(i64 24, ptr %5) #7
  call void @llvm.lifetime.end.p0(i64 8, ptr %4) #7
  %79 = load i32, ptr %2, align 4
  ret i32 %79
}