; Function Attrs: nounwind uwtable
define internal range(i32 -2147483648, 1) i32 @apv_read_header(ptr noundef %0) #1 {
  %2 = alloca [12 x i8], align 4
  call void @llvm.lifetime.start.p0(i64 12, ptr nonnull %2) #5
  %3 = getelementptr inbounds nuw i8, ptr %0, i64 32
  %4 = load ptr, ptr %3, align 8, !tbaa !13
  %5 = tail call i32 @ffio_ensure_seekback(ptr noundef %4, i64 noundef 12) #5
  %6 = icmp slt i32 %5, 0
  br i1 %6, label %bytestream2_get_be32.exit23.thread, label %7

7:                                                ; preds = %1
  %8 = load ptr, ptr %3, align 8, !tbaa !13
  %9 = call i32 @ffio_read_size(ptr noundef %8, ptr noundef nonnull %2, i32 noundef 12) #5
  %10 = icmp slt i32 %9, 0
  br i1 %10, label %bytestream2_get_be32.exit23.thread, label %bytestream2_get_be32.exit

bytestream2_get_be32.exit:                        ; preds = %7
  %11 = load i32, ptr %2, align 4, !tbaa !12
  %12 = call i32 @llvm.bswap.i32(i32 %11)
  %13 = icmp ugt i32 %12, 23
  %14 = getelementptr inbounds nuw i8, ptr %2, i64 4
  %15 = load i32, ptr %14, align 4
  %.not.not = icmp eq i32 %15, 829837409
  %or.cond = select i1 %13, i1 %.not.not, i1 false
  br i1 %or.cond, label %bytestream2_get_be32.exit25, label %bytestream2_get_be32.exit23.thread

bytestream2_get_be32.exit25:                      ; preds = %bytestream2_get_be32.exit
  %16 = getelementptr inbounds nuw i8, ptr %2, i64 8
  %17 = load i32, ptr %16, align 4, !tbaa !12
  %18 = call i32 @llvm.bswap.i32(i32 %17)
  %19 = icmp ult i32 %18, 16
  br i1 %19, label %bytestream2_get_be32.exit23.thread, label %20

20:                                               ; preds = %bytestream2_get_be32.exit25
  %21 = call ptr @avformat_new_stream(ptr noundef nonnull %0, ptr noundef null) #5
  %.not21 = icmp eq ptr %21, null
  br i1 %.not21, label %bytestream2_get_be32.exit23.thread, label %22

22:                                               ; preds = %20
  %23 = getelementptr inbounds nuw i8, ptr %21, i64 16
  %24 = load ptr, ptr %23, align 8, !tbaa !28
  store i32 0, ptr %24, align 8, !tbaa !35
  %25 = getelementptr inbounds nuw i8, ptr %24, i64 4
  store i32 273, ptr %25, align 4, !tbaa !38
  %26 = getelementptr inbounds nuw i8, ptr %21, i64 808
  store i32 2, ptr %26, align 8, !tbaa !39
  %27 = getelementptr inbounds nuw i8, ptr %21, i64 88
  store i32 30, ptr %27, align 8, !tbaa !51
  %.sroa.2.0..sroa_idx = getelementptr inbounds nuw i8, ptr %21, i64 92
  store i32 1, ptr %.sroa.2.0..sroa_idx, align 4, !tbaa !51
  call void @avpriv_set_pts_info(ptr noundef nonnull %21, i32 noundef 64, i32 noundef 1, i32 noundef 30) #5
  %28 = load ptr, ptr %3, align 8, !tbaa !13
  %29 = sub nsw i32 0, %9
  %30 = sext i32 %29 to i64
  %31 = call i64 @avio_seek(ptr noundef %28, i64 noundef %30, i32 noundef 1) #5
  br label %bytestream2_get_be32.exit23.thread

bytestream2_get_be32.exit23.thread:               ; preds = %20, %bytestream2_get_be32.exit25, %bytestream2_get_be32.exit, %7, %1, %22
  %.0 = phi i32 [ 0, %22 ], [ %5, %1 ], [ %9, %7 ], [ -1094995529, %bytestream2_get_be32.exit ], [ -1094995529, %bytestream2_get_be32.exit25 ], [ -12, %20 ]
  call void @llvm.lifetime.end.p0(i64 12, ptr nonnull %2) #5
  ret i32 %.0
}